target datalayout = "e-m:e-p270:32:32-p271:32:32-p272:64:64-i64:64-i128:128-f80:128-n8:16:32:64-S128"
target triple = "x86_64-pc-linux-gnu"

%struct.asn1_string_st = type { i32, i32, ptr, i64 }

; Function Attrs: nounwind uwtable
define internal void @twos_complement(ptr noundef %0, ptr noundef %1, i64 noundef %2, i8 noundef zeroext %3) #0 {
  %5 = alloca ptr, align 8
  %6 = alloca ptr, align 8
  %7 = alloca i64, align 8
  %8 = alloca i8, align 1
  %9 = alloca i32, align 4
  store ptr %0, ptr %5, align 8, !tbaa !18
  store ptr %1, ptr %6, align 8, !tbaa !18
  store i64 %2, ptr %7, align 8, !tbaa !19
  store i8 %3, ptr %8, align 1, !tbaa !20
  call void @llvm.lifetime.start.p0(i64 4, ptr %9) #4
  %10 = load i8, ptr %8, align 1, !tbaa !20
  %11 = zext i8 %10 to i32
  %12 = and i32 %11, 1
  store i32 %12, ptr %9, align 4, !tbaa !13
  %13 = load i64, ptr %7, align 8, !tbaa !19
  %14 = icmp ne i64 %13, 0
  br i1 %14, label %15, label %22

15:                                               ; preds = %4
  %16 = load i64, ptr %7, align 8, !tbaa !19
  %17 = load ptr, ptr %5, align 8, !tbaa !18
  %18 = getelementptr inbounds nuw i8, ptr %17, i64 %16
  store ptr %18, ptr %5, align 8, !tbaa !18
  %19 = load i64, ptr %7, align 8, !tbaa !19
  %20 = load ptr, ptr %6, align 8, !tbaa !18
  %21 = getelementptr inbounds nuw i8, ptr %20, i64 %19
  store ptr %21, ptr %6, align 8, !tbaa !18
  br label %22

22:                                               ; preds = %15, %4
  br label %23

23:                                               ; preds = %27, %22
  %24 = load i64, ptr %7, align 8, !tbaa !19
  %25 = add i64 %24, -1
  store i64 %25, ptr %7, align 8, !tbaa !19
  %26 = icmp ne i64 %24, 0
  br i1 %26, label %27, label %42

27:                                               ; preds = %23
  %28 = load ptr, ptr %6, align 8, !tbaa !18
  %29 = getelementptr inbounds i8, ptr %28, i32 -1
  store ptr %29, ptr %6, align 8, !tbaa !18
  %30 = load i8, ptr %29, align 1, !tbaa !20
  %31 = zext i8 %30 to i32
  %32 = load i8, ptr %8, align 1, !tbaa !20
  %33 = zext i8 %32 to i32
  %34 = xor i32 %31, %33
  %35 = load i32, ptr %9, align 4, !tbaa !13
  %36 = add i32 %35, %34
  store i32 %36, ptr %9, align 4, !tbaa !13
  %37 = trunc i32 %36 to i8
  %38 = load ptr, ptr %5, align 8, !tbaa !18
  %39 = getelementptr inbounds i8, ptr %38, i32 -1
  store ptr %39, ptr %5, align 8, !tbaa !18
  store i8 %37, ptr %39, align 1, !tbaa !20
  %40 = load i32, ptr %9, align 4, !tbaa !13
  %41 = lshr i32 %40, 8
  store i32 %41, ptr %9, align 4, !tbaa !13
  br label %23, !llvm.loop !34

42:                                               ; preds = %23
  call void @llvm.lifetime.end.p0(i64 4, ptr %9) #4
  ret void
}

; Function Attrs: nounwind uwtable
define internal i64 @i2c_ibuf(ptr noundef %0, i64 noundef %1, i32 noundef %2, ptr noundef %3) #0 {
  %5 = alloca i64, align 8
  %6 = alloca ptr, align 8
  %7 = alloca i64, align 8
  %8 = alloca i32, align 4
  %9 = alloca ptr, align 8
  %10 = alloca i32, align 4
  %11 = alloca i64, align 8
  %12 = alloca i64, align 8
  %13 = alloca ptr, align 8
  %14 = alloca i8, align 1
  %15 = alloca i32, align 4
  store ptr %0, ptr %6, align 8, !tbaa !18
  store i64 %1, ptr %7, align 8, !tbaa !19
  store i32 %2, ptr %8, align 4, !tbaa !13
  store ptr %3, ptr %9, align 8, !tbaa !14
  call void @llvm.lifetime.start.p0(i64 4, ptr %10) #4
  store i32 0, ptr %10, align 4, !tbaa !13
  call void @llvm.lifetime.start.p0(i64 8, ptr %11) #4
  call void @llvm.lifetime.start.p0(i64 8, ptr %12) #4
  call void @llvm.lifetime.start.p0(i64 8, ptr %13) #4
  call void @llvm.lifetime.start.p0(i64 1, ptr %14) #4
  store i8 0, ptr %14, align 1, !tbaa !20
  %16 = load ptr, ptr %6, align 8, !tbaa !18
  %17 = icmp ne ptr %16, null
  br i1 %17, label %18, label %75

18:                                               ; preds = %4
  %19 = load i64, ptr %7, align 8, !tbaa !19
  %20 = icmp ne i64 %19, 0
  br i1 %20, label %21, label %75

21:                                               ; preds = %18
  %22 = load i64, ptr %7, align 8, !tbaa !19
  store i64 %22, ptr %11, align 8, !tbaa !19
  %23 = load ptr, ptr %6, align 8, !tbaa !18
  %24 = getelementptr inbounds i8, ptr %23, i64 0
  %25 = load i8, ptr %24, align 1, !tbaa !20
  %26 = zext i8 %25 to i64
  store i64 %26, ptr %12, align 8, !tbaa !19
  %27 = load i32, ptr %8, align 4, !tbaa !13
  %28 = icmp ne i32 %27, 0
  br i1 %28, label %33, label %29

29:                                               ; preds = %21
  %30 = load i64, ptr %12, align 8, !tbaa !19
  %31 = icmp ugt i64 %30, 127
  br i1 %31, label %32, label %33

32:                                               ; preds = %29
  store i32 1, ptr %10, align 4, !tbaa !13
  store i8 0, ptr %14, align 1, !tbaa !20
  br label %70

33:                                               ; preds = %29, %21
  %34 = load i32, ptr %8, align 4, !tbaa !13
  %35 = icmp ne i32 %34, 0
  br i1 %35, label %36, label %69

36:                                               ; preds = %33
  store i8 -1, ptr %14, align 1, !tbaa !20
  %37 = load i64, ptr %12, align 8, !tbaa !19
  %38 = icmp ugt i64 %37, 128
  br i1 %38, label %39, label %40

39:                                               ; preds = %36
  store i32 1, ptr %10, align 4, !tbaa !13
  br label %68

40:                                               ; preds = %36
  %41 = load i64, ptr %12, align 8, !tbaa !19
  %42 = icmp eq i64 %41, 128
  br i1 %42, label %43, label %67

43:                                               ; preds = %40
  store i32 0, ptr %10, align 4, !tbaa !13
  store i64 1, ptr %12, align 8, !tbaa !19
  br label %44

44:                                               ; preds = %56, %43
  %45 = load i64, ptr %12, align 8, !tbaa !19
  %46 = load i64, ptr %7, align 8, !tbaa !19
  %47 = icmp ult i64 %45, %46
  br i1 %47, label %48, label %59

48:                                               ; preds = %44
  %49 = load ptr, ptr %6, align 8, !tbaa !18
  %50 = load i64, ptr %12, align 8, !tbaa !19
  %51 = getelementptr inbounds nuw i8, ptr %49, i64 %50
  %52 = load i8, ptr %51, align 1, !tbaa !20
  %53 = zext i8 %52 to i32
  %54 = load i32, ptr %10, align 4, !tbaa !13
  %55 = or i32 %54, %53
  store i32 %55, ptr %10, align 4, !tbaa !13
  br label %56

56:                                               ; preds = %48
  %57 = load i64, ptr %12, align 8, !tbaa !19
  %58 = add i64 %57, 1
  store i64 %58, ptr %12, align 8, !tbaa !19
  br label %44, !llvm.loop !21

59:                                               ; preds = %44
  %60 = load i32, ptr %10, align 4, !tbaa !13
  %61 = icmp ne i32 %60, 0
  %62 = select i1 %61, i32 255, i32 0
  %63 = trunc i32 %62 to i8
  store i8 %63, ptr %14, align 1, !tbaa !20
  %64 = load i8, ptr %14, align 1, !tbaa !20
  %65 = zext i8 %64 to i32
  %66 = and i32 %65, 1
  store i32 %66, ptr %10, align 4, !tbaa !13
  br label %67

67:                                               ; preds = %59, %40
  br label %68

68:                                               ; preds = %67, %39
  br label %69

69:                                               ; preds = %68, %33
  br label %70

70:                                               ; preds = %69, %32
  %71 = load i32, ptr %10, align 4, !tbaa !13
  %72 = zext i32 %71 to i64
  %73 = load i64, ptr %11, align 8, !tbaa !19
  %74 = add i64 %73, %72
  store i64 %74, ptr %11, align 8, !tbaa !19
  br label %76

75:                                               ; preds = %18, %4
  store i64 1, ptr %11, align 8, !tbaa !19
  store i64 0, ptr %7, align 8, !tbaa !19
  br label %76

76:                                               ; preds = %75, %70
  %77 = load ptr, ptr %9, align 8, !tbaa !14
  %78 = icmp eq ptr %77, null
  br i1 %78, label %83, label %79

79:                                               ; preds = %76
  %80 = load ptr, ptr %9, align 8, !tbaa !14
  %81 = load ptr, ptr %80, align 8, !tbaa !18
  store ptr %81, ptr %13, align 8, !tbaa !18
  %82 = icmp eq ptr %81, null
  br i1 %82, label %83, label %85

83:                                               ; preds = %79, %76
  %84 = load i64, ptr %11, align 8, !tbaa !19
  store i64 %84, ptr %5, align 8
  store i32 1, ptr %15, align 4
  br label %101

85:                                               ; preds = %79
  %86 = load i8, ptr %14, align 1, !tbaa !20
  %87 = load ptr, ptr %13, align 8, !tbaa !18
  store i8 %86, ptr %87, align 1, !tbaa !20
  %88 = load i32, ptr %10, align 4, !tbaa !13
  %89 = load ptr, ptr %13, align 8, !tbaa !18
  %90 = zext i32 %88 to i64
  %91 = getelementptr inbounds nuw i8, ptr %89, i64 %90
  store ptr %91, ptr %13, align 8, !tbaa !18
  %92 = load ptr, ptr %13, align 8, !tbaa !18
  %93 = load ptr, ptr %6, align 8, !tbaa !18
  %94 = load i64, ptr %7, align 8, !tbaa !19
  %95 = load i8, ptr %14, align 1, !tbaa !20
  call void @twos_complement(ptr noundef %92, ptr noundef %93, i64 noundef %94, i8 noundef zeroext %95)
  %96 = load i64, ptr %11, align 8, !tbaa !19
  %97 = load ptr, ptr %9, align 8, !tbaa !14
  %98 = load ptr, ptr %97, align 8, !tbaa !18
  %99 = getelementptr inbounds nuw i8, ptr %98, i64 %96
  store ptr %99, ptr %97, align 8, !tbaa !18
  %100 = load i64, ptr %11, align 8, !tbaa !19
  store i64 %100, ptr %5, align 8
  store i32 1, ptr %15, align 4
  br label %101

101:                                              ; preds = %85, %83
  call void @llvm.lifetime.end.p0(i64 1, ptr %14) #4
  call void @llvm.lifetime.end.p0(i64 8, ptr %13) #4
  call void @llvm.lifetime.end.p0(i64 8, ptr %12) #4
  call void @llvm.lifetime.end.p0(i64 8, ptr %11) #4
  call void @llvm.lifetime.end.p0(i64 4, ptr %10) #4
  %102 = load i64, ptr %5, align 8
  ret i64 %102
}

; Function Attrs: nounwind uwtable
define i32 @ossl_i2c_ASN1_INTEGER(ptr noundef %0, ptr noundef %1) #0 {
  %3 = alloca ptr, align 8
  %4 = alloca ptr, align 8
  store ptr %0, ptr %3, align 8, !tbaa !3
  store ptr %1, ptr %4, align 8, !tbaa !14
  %5 = load ptr, ptr %3, align 8, !tbaa !3
  %6 = getelementptr inbounds nuw %struct.asn1_string_st, ptr %5, i32 0, i32 2
  %7 = load ptr, ptr %6, align 8, !tbaa !16
  %8 = load ptr, ptr %3, align 8, !tbaa !3
  %9 = getelementptr inbounds nuw %struct.asn1_string_st, ptr %8, i32 0, i32 0
  %10 = load i32, ptr %9, align 8, !tbaa !17
  %11 = sext i32 %10 to i64
  %12 = load ptr, ptr %3, align 8, !tbaa !3
  %13 = getelementptr inbounds nuw %struct.asn1_string_st, ptr %12, i32 0, i32 1
  %14 = load i32, ptr %13, align 4, !tbaa !8
  %15 = and i32 %14, 256
  %16 = load ptr, ptr %4, align 8, !tbaa !14
  %17 = call i64 @i2c_ibuf(ptr noundef %7, i64 noundef %11, i32 noundef %15, ptr noundef %16)
  %18 = trunc i64 %17 to i32
  ret i32 %18
}