; Function Attrs: nofree norecurse nosync nounwind memory(readwrite, inaccessiblemem: none) uwtable
define i32 @ossl_i2c_ASN1_INTEGER(ptr noundef readonly captures(none) %0, ptr noundef captures(address_is_null) %1) local_unnamed_addr #3 {
  %3 = getelementptr inbounds nuw i8, ptr %0, i64 8
  %4 = load ptr, ptr %3, align 8, !tbaa !11
  %5 = load i32, ptr %0, align 8, !tbaa !12
  %6 = sext i32 %5 to i64
  %7 = icmp ne ptr %4, null
  %8 = icmp ne i32 %5, 0
  %or.cond.i = and i1 %7, %8
  br i1 %or.cond.i, label %9, label %30

9:                                                ; preds = %2
  %10 = getelementptr inbounds nuw i8, ptr %0, i64 4
  %11 = load i32, ptr %10, align 4, !tbaa !3
  %12 = and i32 %11, 256
  %13 = load i8, ptr %4, align 1, !tbaa !13
  %14 = icmp eq i32 %12, 0
  %15 = icmp slt i8 %13, 0
  br i1 %14, label %28, label %16

16:                                               ; preds = %9
  %17 = icmp ugt i8 %13, -128
  br i1 %17, label %28, label %18

18:                                               ; preds = %16
  %19 = icmp eq i8 %13, -128
  br i1 %19, label %.preheader.i, label %28

.preheader.i:                                     ; preds = %18
  %20 = icmp ugt i32 %5, 1
  br i1 %20, label %.lr.ph.i, label %._crit_edge.i

.lr.ph.i:                                         ; preds = %.preheader.i, %.lr.ph.i
  %.03649.i = phi i64 [ %25, %.lr.ph.i ], [ 1, %.preheader.i ]
  %.13948.i = phi i32 [ %24, %.lr.ph.i ], [ 0, %.preheader.i ]
  %21 = getelementptr inbounds nuw i8, ptr %4, i64 %.03649.i
  %22 = load i8, ptr %21, align 1, !tbaa !13
  %23 = zext i8 %22 to i32
  %24 = or i32 %.13948.i, %23
  %25 = add nuw i64 %.03649.i, 1
  %exitcond.not.i = icmp eq i64 %25, %6
  br i1 %exitcond.not.i, label %._crit_edge.loopexit.i, label %.lr.ph.i, !llvm.loop !14

._crit_edge.loopexit.i:                           ; preds = %.lr.ph.i
  %26 = icmp ne i32 %24, 0
  br label %._crit_edge.i

._crit_edge.i:                                    ; preds = %._crit_edge.loopexit.i, %.preheader.i
  %.139.lcssa.i = phi i1 [ false, %.preheader.i ], [ %26, %._crit_edge.loopexit.i ]
  %27 = sext i1 %.139.lcssa.i to i8
  br label %28

28:                                               ; preds = %._crit_edge.i, %18, %16, %9
  %.038.shrunk.i = phi i1 [ %.139.lcssa.i, %._crit_edge.i ], [ false, %18 ], [ %15, %9 ], [ true, %16 ]
  %.0.i = phi i8 [ %27, %._crit_edge.i ], [ -1, %18 ], [ 0, %9 ], [ -1, %16 ]
  %.038.i = zext i1 %.038.shrunk.i to i64
  %29 = add nsw i64 %.038.i, %6
  br label %30

30:                                               ; preds = %28, %2
  %.041.i = phi i64 [ %6, %28 ], [ 0, %2 ]
  %.2.i = phi i64 [ %.038.i, %28 ], [ 0, %2 ]
  %.037.i = phi i64 [ %29, %28 ], [ 1, %2 ]
  %.1.i = phi i8 [ %.0.i, %28 ], [ 0, %2 ]
  %31 = icmp eq ptr %1, null
  br i1 %31, label %i2c_ibuf.exit, label %32

32:                                               ; preds = %30
  %33 = load ptr, ptr %1, align 8, !tbaa !16
  %34 = icmp eq ptr %33, null
  br i1 %34, label %i2c_ibuf.exit, label %35

35:                                               ; preds = %32
  store i8 %.1.i, ptr %33, align 1, !tbaa !13
  %.not1617.i.i = icmp eq i64 %.041.i, 0
  br i1 %.not1617.i.i, label %twos_complement.exit.i, label %.lr.ph.preheader.i.i

.lr.ph.preheader.i.i:                             ; preds = %35
  %36 = getelementptr inbounds nuw i8, ptr %33, i64 %.2.i
  %37 = getelementptr inbounds nuw i8, ptr %4, i64 %.041.i
  %38 = getelementptr inbounds nuw i8, ptr %36, i64 %.041.i
  %39 = and i8 %.1.i, 1
  %40 = zext nneg i8 %39 to i32
  br label %.lr.ph.i.i

.lr.ph.i.i:                                       ; preds = %.lr.ph.i.i, %.lr.ph.preheader.i.i
  %.021.i.i = phi i32 [ %49, %.lr.ph.i.i ], [ %40, %.lr.ph.preheader.i.i ]
  %.120.i.i = phi ptr [ %48, %.lr.ph.i.i ], [ %38, %.lr.ph.preheader.i.i ]
  %.01219.i.i = phi i64 [ %41, %.lr.ph.i.i ], [ %.041.i, %.lr.ph.preheader.i.i ]
  %.11418.i.i = phi ptr [ %42, %.lr.ph.i.i ], [ %37, %.lr.ph.preheader.i.i ]
  %41 = add i64 %.01219.i.i, -1
  %42 = getelementptr inbounds i8, ptr %.11418.i.i, i64 -1
  %43 = load i8, ptr %42, align 1, !tbaa !13
  %44 = xor i8 %43, %.1.i
  %45 = zext i8 %44 to i32
  %46 = add nuw nsw i32 %.021.i.i, %45
  %47 = trunc i32 %46 to i8
  %48 = getelementptr inbounds i8, ptr %.120.i.i, i64 -1
  store i8 %47, ptr %48, align 1, !tbaa !13
  %49 = lshr i32 %46, 8
  %.not16.i.i = icmp eq i64 %41, 0
  br i1 %.not16.i.i, label %twos_complement.exit.i, label %.lr.ph.i.i, !llvm.loop !17

twos_complement.exit.i:                           ; preds = %.lr.ph.i.i, %35
  %50 = load ptr, ptr %1, align 8, !tbaa !16
  %51 = getelementptr inbounds nuw i8, ptr %50, i64 %.037.i
  store ptr %51, ptr %1, align 8, !tbaa !16
  br label %i2c_ibuf.exit

i2c_ibuf.exit:                                    ; preds = %30, %32, %twos_complement.exit.i
  %52 = trunc i64 %.037.i to i32
  ret i32 %52
}